#include <math.h>
#include <stdio.h>
#include <stdlib.h>
#include <string.h>


	int main()
{
	
	int a,b,c,d;
	void f(int x);
	scanf("%d%d%d%d",&a,&b,&c,&d);
	f(a);
	f(b);
	f(c);
	f(d);
	return 0;
}


void f(int x)
    {
	int y=0;
    while(x>9)
	{
      y=(y+x-x/10*10)*10;
      x/=10;
    }
	    y+=x;
    printf("%d\n",y);
	}